target datalayout = "e-m:e-p270:32:32-p271:32:32-p272:64:64-i64:64-i128:128-f80:128-n8:16:32:64-S128"
target triple = "x86_64-pc-linux-gnu"

%struct.z_stream_s = type { ptr, i32, i64, ptr, i32, i64, ptr, ptr, ptr, ptr, ptr, i32, i64, i64 }
%struct.GVJ_s = type { ptr, ptr, ptr, ptr, ptr, ptr, i32, ptr, ptr, ptr, ptr, i64, i64, ptr, i32, %struct.gvplugin_active_render_s, %struct.gvplugin_active_device_s, %struct.gvplugin_active_loadimage_t, ptr, %struct.pointf_s, i8, ptr, i32, ptr, i8, ptr, i32, i32, i32, %struct.point, %struct.point, %struct.point, %struct.point, %struct.point, i32, %struct.boxf, %struct.pointf_s, %struct.boxf, %struct.boxf, %struct.pointf_s, %struct.pointf_s, double, i32, %struct.pointf_s, %struct.boxf, %struct.pointf_s, %struct.pointf_s, i32, i32, %struct.box, %struct.box, %struct.pointf_s, %struct.pointf_s, %struct.pointf_s, i8, i8, i8, i8, i8, i8, %struct.pointf_s, %struct.pointf_s, ptr, ptr, ptr, ptr, ptr, ptr, i64, ptr }
%struct.gvplugin_active_render_s = type { ptr, i32, ptr, ptr }
%struct.gvplugin_active_device_s = type { ptr, i32, ptr, ptr }
%struct.gvplugin_active_loadimage_t = type { ptr, i32, ptr }
%struct.point = type { i32, i32 }
%struct.boxf = type { %struct.pointf_s, %struct.pointf_s }
%struct.box = type { %struct.point, %struct.point }
%struct.pointf_s = type { double, double }
%struct.gvdevice_engine_s = type { ptr, ptr, ptr }
%struct.GVC_s = type { %struct.GVCOMMON_s, ptr, i8, ptr, i32, ptr, ptr, [5 x ptr], [5 x ptr], ptr, ptr, %struct.dtdisc_s_, ptr, %struct.gvplugin_active_textlayout_s, ptr, ptr, ptr, %struct.gvplugin_active_layout_s, ptr, ptr, ptr, %struct.pointf_s, %struct.pointf_s, %struct.pointf_s, %struct.point, %struct.boxf, i32, i8, i8, i8, ptr, ptr, ptr, ptr, i32, ptr, ptr, double, ptr, %struct.color_s, i32 }
%struct.GVCOMMON_s = type { ptr, ptr, i32, i8, i8, ptr, ptr, ptr, i32, ptr, i32 }
%struct.dtdisc_s_ = type { i32, i32, i32, ptr, ptr, ptr }
%struct.gvplugin_active_textlayout_s = type { ptr, i32, ptr }
%struct.gvplugin_active_layout_s = type { ptr, i32, ptr, ptr }
%struct.color_s = type { %union.anon, i32 }
%union.anon = type { [4 x double] }

@stdout = external global ptr, align 8
@z_strm = internal global %struct.z_stream_s zeroinitializer, align 8
@crc = internal global i64 0, align 8
@dfallocated = internal global i32 0, align 4
@df = internal global ptr null, align 8
@.str.9 = private unnamed_addr constant [36 x i8] c"deflation finish problem %d cnt=%d\0A\00", align 1
@.str.10 = private unnamed_addr constant [26 x i8] c"deflation end problem %d\0A\00", align 1

; Function Attrs: nounwind uwtable
define internal void @gvdevice_close(ptr noundef %0) #0 {
  %2 = alloca ptr, align 8
  store ptr %0, ptr %2, align 8, !tbaa !3
  %3 = load ptr, ptr %2, align 8, !tbaa !3
  %4 = getelementptr inbounds nuw %struct.GVJ_s, ptr %3, i32 0, i32 8
  %5 = load ptr, ptr %4, align 8, !tbaa !55
  %6 = icmp ne ptr %5, null
  br i1 %6, label %7, label %33

7:                                                ; preds = %1
  %8 = load ptr, ptr %2, align 8, !tbaa !3
  %9 = getelementptr inbounds nuw %struct.GVJ_s, ptr %8, i32 0, i32 9
  %10 = load ptr, ptr %9, align 8, !tbaa !37
  %11 = load ptr, ptr @stdout, align 8, !tbaa !59
  %12 = icmp ne ptr %10, %11
  br i1 %12, label %13, label %33

13:                                               ; preds = %7
  %14 = load ptr, ptr %2, align 8, !tbaa !3
  %15 = getelementptr inbounds nuw %struct.GVJ_s, ptr %14, i32 0, i32 24
  %16 = load i8, ptr %15, align 8, !tbaa !85, !range !53, !noundef !54
  %17 = trunc i8 %16 to i1
  br i1 %17, label %33, label %18

18:                                               ; preds = %13
  %19 = load ptr, ptr %2, align 8, !tbaa !3
  %20 = getelementptr inbounds nuw %struct.GVJ_s, ptr %19, i32 0, i32 9
  %21 = load ptr, ptr %20, align 8, !tbaa !37
  %22 = icmp ne ptr %21, null
  br i1 %22, label %23, label %30

23:                                               ; preds = %18
  %24 = load ptr, ptr %2, align 8, !tbaa !3
  %25 = getelementptr inbounds nuw %struct.GVJ_s, ptr %24, i32 0, i32 9
  %26 = load ptr, ptr %25, align 8, !tbaa !37
  %27 = call i32 @fclose(ptr noundef %26)
  %28 = load ptr, ptr %2, align 8, !tbaa !3
  %29 = getelementptr inbounds nuw %struct.GVJ_s, ptr %28, i32 0, i32 9
  store ptr null, ptr %29, align 8, !tbaa !37
  br label %30

30:                                               ; preds = %23, %18
  %31 = load ptr, ptr %2, align 8, !tbaa !3
  %32 = getelementptr inbounds nuw %struct.GVJ_s, ptr %31, i32 0, i32 8
  store ptr null, ptr %32, align 8, !tbaa !55
  br label %33

33:                                               ; preds = %30, %13, %7, %1
  ret void
}

; Function Attrs: nounwind uwtable
define i32 @gvflush(ptr noundef %0) #0 {
  %2 = alloca i32, align 4
  %3 = alloca ptr, align 8
  store ptr %0, ptr %3, align 8, !tbaa !3
  %4 = load ptr, ptr %3, align 8, !tbaa !3
  %5 = getelementptr inbounds nuw %struct.GVJ_s, ptr %4, i32 0, i32 9
  %6 = load ptr, ptr %5, align 8, !tbaa !37
  %7 = icmp ne ptr %6, null
  br i1 %7, label %8, label %25

8:                                                ; preds = %1
  %9 = load ptr, ptr %3, align 8, !tbaa !3
  %10 = getelementptr inbounds nuw %struct.GVJ_s, ptr %9, i32 0, i32 24
  %11 = load i8, ptr %10, align 8, !tbaa !85, !range !53, !noundef !54
  %12 = trunc i8 %11 to i1
  br i1 %12, label %25, label %13

13:                                               ; preds = %8
  %14 = load ptr, ptr %3, align 8, !tbaa !3
  %15 = getelementptr inbounds nuw %struct.GVJ_s, ptr %14, i32 0, i32 0
  %16 = load ptr, ptr %15, align 8, !tbaa !32
  %17 = getelementptr inbounds nuw %struct.GVC_s, ptr %16, i32 0, i32 10
  %18 = load ptr, ptr %17, align 8, !tbaa !78
  %19 = icmp ne ptr %18, null
  br i1 %19, label %25, label %20

20:                                               ; preds = %13
  %21 = load ptr, ptr %3, align 8, !tbaa !3
  %22 = getelementptr inbounds nuw %struct.GVJ_s, ptr %21, i32 0, i32 9
  %23 = load ptr, ptr %22, align 8, !tbaa !37
  %24 = call i32 @fflush(ptr noundef %23)
  store i32 %24, ptr %2, align 4
  br label %26

25:                                               ; preds = %13, %8, %1
  store i32 0, ptr %2, align 4
  br label %26

26:                                               ; preds = %25, %20
  %27 = load i32, ptr %2, align 4
  ret i32 %27
}

; Function Attrs: nounwind uwtable
define void @gvdevice_finalize(ptr noundef %0) #0 {
  %2 = alloca ptr, align 8
  %3 = alloca ptr, align 8
  %4 = alloca i8, align 1
  %5 = alloca ptr, align 8
  %6 = alloca [8 x i8], align 1
  %7 = alloca i32, align 4
  %8 = alloca i32, align 4
  store ptr %0, ptr %2, align 8, !tbaa !3
  call void @llvm.lifetime.start.p0(i64 8, ptr %3) #14
  %9 = load ptr, ptr %2, align 8, !tbaa !3
  %10 = getelementptr inbounds nuw %struct.GVJ_s, ptr %9, i32 0, i32 16
  %11 = getelementptr inbounds nuw %struct.gvplugin_active_device_s, ptr %10, i32 0, i32 0
  %12 = load ptr, ptr %11, align 8, !tbaa !8
  store ptr %12, ptr %3, align 8, !tbaa !31
  call void @llvm.lifetime.start.p0(i64 1, ptr %4) #14
  store i8 0, ptr %4, align 1, !tbaa !87
  %13 = load ptr, ptr %2, align 8, !tbaa !3
  %14 = getelementptr inbounds nuw %struct.GVJ_s, ptr %13, i32 0, i32 26
  %15 = load i32, ptr %14, align 8, !tbaa !60
  %16 = and i32 %15, 1024
  %17 = icmp ne i32 %16, 0
  br i1 %17, label %18, label %132

18:                                               ; preds = %1
  call void @llvm.lifetime.start.p0(i64 8, ptr %5) #14
  store ptr @z_strm, ptr %5, align 8, !tbaa !61
  call void @llvm.lifetime.start.p0(i64 8, ptr %6) #14
  call void @llvm.memset.p0.i64(ptr align 1 %6, i8 0, i64 8, i1 false)
  call void @llvm.lifetime.start.p0(i64 4, ptr %7) #14
  call void @llvm.lifetime.start.p0(i64 4, ptr %8) #14
  store i32 0, ptr %8, align 4, !tbaa !58
  %19 = getelementptr inbounds [8 x i8], ptr %6, i64 0, i64 0
  %20 = load ptr, ptr %5, align 8, !tbaa !61
  %21 = getelementptr inbounds nuw %struct.z_stream_s, ptr %20, i32 0, i32 0
  store ptr %19, ptr %21, align 8, !tbaa !68
  %22 = load ptr, ptr %5, align 8, !tbaa !61
  %23 = getelementptr inbounds nuw %struct.z_stream_s, ptr %22, i32 0, i32 1
  store i32 0, ptr %23, align 8, !tbaa !70
  %24 = load ptr, ptr @df, align 8, !tbaa !73
  %25 = load ptr, ptr %5, align 8, !tbaa !61
  %26 = getelementptr inbounds nuw %struct.z_stream_s, ptr %25, i32 0, i32 3
  store ptr %24, ptr %26, align 8, !tbaa !69
  %27 = load i32, ptr @dfallocated, align 4, !tbaa !58
  %28 = load ptr, ptr %5, align 8, !tbaa !61
  %29 = getelementptr inbounds nuw %struct.z_stream_s, ptr %28, i32 0, i32 4
  store i32 %27, ptr %29, align 8, !tbaa !81
  br label %30

30:                                               ; preds = %40, %18
  %31 = load ptr, ptr %5, align 8, !tbaa !61
  %32 = call i32 @deflate(ptr noundef %31, i32 noundef 4)
  store i32 %32, ptr %7, align 4, !tbaa !58
  %33 = icmp eq i32 %32, 0
  br i1 %33, label %34, label %38

34:                                               ; preds = %30
  %35 = load i32, ptr %8, align 4, !tbaa !58
  %36 = add nsw i32 %35, 1
  store i32 %36, ptr %8, align 4, !tbaa !58
  %37 = icmp sle i32 %35, 100
  br label %38

38:                                               ; preds = %34, %30
  %39 = phi i1 [ false, %30 ], [ %37, %34 ]
  br i1 %39, label %40, label %57

40:                                               ; preds = %38
  %41 = load ptr, ptr %2, align 8, !tbaa !3
  %42 = load ptr, ptr @df, align 8, !tbaa !73
  %43 = load ptr, ptr %5, align 8, !tbaa !61
  %44 = getelementptr inbounds nuw %struct.z_stream_s, ptr %43, i32 0, i32 3
  %45 = load ptr, ptr %44, align 8, !tbaa !69
  %46 = load ptr, ptr @df, align 8, !tbaa !73
  %47 = ptrtoint ptr %45 to i64
  %48 = ptrtoint ptr %46 to i64
  %49 = sub i64 %47, %48
  %50 = call i64 @gvwrite_no_z(ptr noundef %41, ptr noundef %42, i64 noundef %49)
  %51 = load ptr, ptr @df, align 8, !tbaa !73
  %52 = load ptr, ptr %5, align 8, !tbaa !61
  %53 = getelementptr inbounds nuw %struct.z_stream_s, ptr %52, i32 0, i32 3
  store ptr %51, ptr %53, align 8, !tbaa !69
  %54 = load i32, ptr @dfallocated, align 4, !tbaa !58
  %55 = load ptr, ptr %5, align 8, !tbaa !61
  %56 = getelementptr inbounds nuw %struct.z_stream_s, ptr %55, i32 0, i32 4
  store i32 %54, ptr %56, align 8, !tbaa !81
  br label %30, !llvm.loop !88

57:                                               ; preds = %38
  %58 = load i32, ptr %7, align 4, !tbaa !58
  %59 = icmp ne i32 %58, 1
  br i1 %59, label %60, label %68

60:                                               ; preds = %57
  %61 = load ptr, ptr %2, align 8, !tbaa !3
  %62 = getelementptr inbounds nuw %struct.GVJ_s, ptr %61, i32 0, i32 3
  %63 = load ptr, ptr %62, align 8, !tbaa !56
  %64 = getelementptr inbounds nuw %struct.GVCOMMON_s, ptr %63, i32 0, i32 5
  %65 = load ptr, ptr %64, align 8, !tbaa !57
  %66 = load i32, ptr %7, align 4, !tbaa !58
  %67 = load i32, ptr %8, align 4, !tbaa !58
  call void (ptr, ...) %65(ptr noundef @.str.9, i32 noundef %66, i32 noundef %67)
  call void @graphviz_exit(i32 noundef 1) #18
  unreachable

68:                                               ; preds = %57
  %69 = load ptr, ptr %2, align 8, !tbaa !3
  %70 = load ptr, ptr @df, align 8, !tbaa !73
  %71 = load ptr, ptr %5, align 8, !tbaa !61
  %72 = getelementptr inbounds nuw %struct.z_stream_s, ptr %71, i32 0, i32 3
  %73 = load ptr, ptr %72, align 8, !tbaa !69
  %74 = load ptr, ptr @df, align 8, !tbaa !73
  %75 = ptrtoint ptr %73 to i64
  %76 = ptrtoint ptr %74 to i64
  %77 = sub i64 %75, %76
  %78 = call i64 @gvwrite_no_z(ptr noundef %69, ptr noundef %70, i64 noundef %77)
  %79 = load ptr, ptr %5, align 8, !tbaa !61
  %80 = call i32 @deflateEnd(ptr noundef %79)
  store i32 %80, ptr %7, align 4, !tbaa !58
  %81 = load i32, ptr %7, align 4, !tbaa !58
  %82 = icmp ne i32 %81, 0
  br i1 %82, label %83, label %90

83:                                               ; preds = %68
  %84 = load ptr, ptr %2, align 8, !tbaa !3
  %85 = getelementptr inbounds nuw %struct.GVJ_s, ptr %84, i32 0, i32 3
  %86 = load ptr, ptr %85, align 8, !tbaa !56
  %87 = getelementptr inbounds nuw %struct.GVCOMMON_s, ptr %86, i32 0, i32 5
  %88 = load ptr, ptr %87, align 8, !tbaa !57
  %89 = load i32, ptr %7, align 4, !tbaa !58
  call void (ptr, ...) %88(ptr noundef @.str.10, i32 noundef %89)
  call void @graphviz_exit(i32 noundef 1) #18
  unreachable

90:                                               ; preds = %68
  %91 = load i64, ptr @crc, align 8, !tbaa !71
  %92 = trunc i64 %91 to i8
  %93 = getelementptr inbounds [8 x i8], ptr %6, i64 0, i64 0
  store i8 %92, ptr %93, align 1, !tbaa !76
  %94 = load i64, ptr @crc, align 8, !tbaa !71
  %95 = lshr i64 %94, 8
  %96 = trunc i64 %95 to i8
  %97 = getelementptr inbounds [8 x i8], ptr %6, i64 0, i64 1
  store i8 %96, ptr %97, align 1, !tbaa !76
  %98 = load i64, ptr @crc, align 8, !tbaa !71
  %99 = lshr i64 %98, 16
  %100 = trunc i64 %99 to i8
  %101 = getelementptr inbounds [8 x i8], ptr %6, i64 0, i64 2
  store i8 %100, ptr %101, align 1, !tbaa !76
  %102 = load i64, ptr @crc, align 8, !tbaa !71
  %103 = lshr i64 %102, 24
  %104 = trunc i64 %103 to i8
  %105 = getelementptr inbounds [8 x i8], ptr %6, i64 0, i64 3
  store i8 %104, ptr %105, align 1, !tbaa !76
  %106 = load ptr, ptr %5, align 8, !tbaa !61
  %107 = getelementptr inbounds nuw %struct.z_stream_s, ptr %106, i32 0, i32 2
  %108 = load i64, ptr %107, align 8, !tbaa !89
  %109 = trunc i64 %108 to i8
  %110 = getelementptr inbounds [8 x i8], ptr %6, i64 0, i64 4
  store i8 %109, ptr %110, align 1, !tbaa !76
  %111 = load ptr, ptr %5, align 8, !tbaa !61
  %112 = getelementptr inbounds nuw %struct.z_stream_s, ptr %111, i32 0, i32 2
  %113 = load i64, ptr %112, align 8, !tbaa !89
  %114 = lshr i64 %113, 8
  %115 = trunc i64 %114 to i8
  %116 = getelementptr inbounds [8 x i8], ptr %6, i64 0, i64 5
  store i8 %115, ptr %116, align 1, !tbaa !76
  %117 = load ptr, ptr %5, align 8, !tbaa !61
  %118 = getelementptr inbounds nuw %struct.z_stream_s, ptr %117, i32 0, i32 2
  %119 = load i64, ptr %118, align 8, !tbaa !89
  %120 = lshr i64 %119, 16
  %121 = trunc i64 %120 to i8
  %122 = getelementptr inbounds [8 x i8], ptr %6, i64 0, i64 6
  store i8 %121, ptr %122, align 1, !tbaa !76
  %123 = load ptr, ptr %5, align 8, !tbaa !61
  %124 = getelementptr inbounds nuw %struct.z_stream_s, ptr %123, i32 0, i32 2
  %125 = load i64, ptr %124, align 8, !tbaa !89
  %126 = lshr i64 %125, 24
  %127 = trunc i64 %126 to i8
  %128 = getelementptr inbounds [8 x i8], ptr %6, i64 0, i64 7
  store i8 %127, ptr %128, align 1, !tbaa !76
  %129 = load ptr, ptr %2, align 8, !tbaa !3
  %130 = getelementptr inbounds [8 x i8], ptr %6, i64 0, i64 0
  %131 = call i64 @gvwrite_no_z(ptr noundef %129, ptr noundef %130, i64 noundef 8)
  call void @llvm.lifetime.end.p0(i64 4, ptr %8) #14
  call void @llvm.lifetime.end.p0(i64 4, ptr %7) #14
  call void @llvm.lifetime.end.p0(i64 8, ptr %6) #14
  call void @llvm.lifetime.end.p0(i64 8, ptr %5) #14
  br label %132

132:                                              ; preds = %90, %1
  %133 = load ptr, ptr %3, align 8, !tbaa !31
  %134 = icmp ne ptr %133, null
  br i1 %134, label %135, label %146

135:                                              ; preds = %132
  %136 = load ptr, ptr %3, align 8, !tbaa !31
  %137 = getelementptr inbounds nuw %struct.gvdevice_engine_s, ptr %136, i32 0, i32 2
  %138 = load ptr, ptr %137, align 8, !tbaa !90
  %139 = icmp ne ptr %138, null
  br i1 %139, label %140, label %145

140:                                              ; preds = %135
  %141 = load ptr, ptr %3, align 8, !tbaa !31
  %142 = getelementptr inbounds nuw %struct.gvdevice_engine_s, ptr %141, i32 0, i32 2
  %143 = load ptr, ptr %142, align 8, !tbaa !90
  %144 = load ptr, ptr %2, align 8, !tbaa !3
  call void %143(ptr noundef %144)
  store i8 1, ptr %4, align 1, !tbaa !87
  br label %145

145:                                              ; preds = %140, %135
  br label %146

146:                                              ; preds = %145, %132
  %147 = load i8, ptr %4, align 1, !tbaa !87, !range !53, !noundef !54
  %148 = trunc i8 %147 to i1
  br i1 %148, label %153, label %149

149:                                              ; preds = %146
  %150 = load ptr, ptr %2, align 8, !tbaa !3
  %151 = call i32 @gvflush(ptr noundef %150)
  %152 = load ptr, ptr %2, align 8, !tbaa !3
  call void @gvdevice_close(ptr noundef %152)
  br label %153

153:                                              ; preds = %149, %146
  call void @llvm.lifetime.end.p0(i64 1, ptr %4) #14
  call void @llvm.lifetime.end.p0(i64 8, ptr %3) #14
  ret void
}