; Function Attrs: nounwind uwtable
define void @gvdevice_finalize(ptr noundef %0) local_unnamed_addr #0 {
  %2 = alloca [8 x i8], align 8
  %3 = getelementptr inbounds nuw i8, ptr %0, i64 152
  %4 = load ptr, ptr %3, align 8, !tbaa !3
  %5 = getelementptr inbounds nuw i8, ptr %0, i64 280
  %6 = load i32, ptr %5, align 8, !tbaa !61
  %7 = and i32 %6, 1024
  %.not = icmp eq i32 %7, 0
  br i1 %.not, label %62, label %8

8:                                                ; preds = %1
  call void @llvm.lifetime.start.p0(i64 8, ptr nonnull %2) #21
  store i64 0, ptr %2, align 8
  store ptr %2, ptr @z_strm, align 8, !tbaa !62
  store i32 0, ptr getelementptr inbounds nuw (i8, ptr @z_strm, i64 8), align 8, !tbaa !66
  br label %9

9:                                                ; preds = %12, %8
  %.0 = phi i32 [ 0, %8 ], [ %13, %12 ]
  %storemerge38 = load ptr, ptr @df, align 8, !tbaa !71
  store ptr %storemerge38, ptr getelementptr inbounds nuw (i8, ptr @z_strm, i64 24), align 8, !tbaa !65
  %storemerge = load i32, ptr @dfallocated, align 4, !tbaa !59
  store i32 %storemerge, ptr getelementptr inbounds nuw (i8, ptr @z_strm, i64 32), align 8, !tbaa !72
  %10 = call i32 @deflate(ptr noundef nonnull @z_strm, i32 noundef 4) #21
  switch i32 %10, label %.critedge.thread [
    i32 0, label %11
    i32 1, label %24
  ]

11:                                               ; preds = %9
  %exitcond.not = icmp eq i32 %.0, 101
  br i1 %exitcond.not, label %.critedge.thread, label %12

12:                                               ; preds = %11
  %13 = add nuw nsw i32 %.0, 1
  %14 = load ptr, ptr @df, align 8, !tbaa !71
  %15 = load ptr, ptr getelementptr inbounds nuw (i8, ptr @z_strm, i64 24), align 8, !tbaa !65
  %16 = ptrtoint ptr %15 to i64
  %17 = ptrtoint ptr %14 to i64
  %18 = sub i64 %16, %17
  %19 = call fastcc i64 @gvwrite_no_z(ptr noundef %0, ptr noundef %14, i64 noundef %18)
  br label %9, !llvm.loop !78

.critedge.thread:                                 ; preds = %9, %11
  %.148 = phi i32 [ %.0, %9 ], [ 102, %11 ]
  %20 = getelementptr inbounds nuw i8, ptr %0, i64 24
  %21 = load ptr, ptr %20, align 8, !tbaa !57
  %22 = getelementptr inbounds nuw i8, ptr %21, i64 24
  %23 = load ptr, ptr %22, align 8, !tbaa !58
  call void (ptr, ...) %23(ptr noundef nonnull @.str.9, i32 noundef %10, i32 noundef %.148) #21
  call fastcc void @graphviz_exit() #25
  unreachable

24:                                               ; preds = %9
  %25 = load ptr, ptr @df, align 8, !tbaa !71
  %26 = load ptr, ptr getelementptr inbounds nuw (i8, ptr @z_strm, i64 24), align 8, !tbaa !65
  %27 = ptrtoint ptr %26 to i64
  %28 = ptrtoint ptr %25 to i64
  %29 = sub i64 %27, %28
  %30 = call fastcc i64 @gvwrite_no_z(ptr noundef %0, ptr noundef %25, i64 noundef %29)
  %31 = call i32 @deflateEnd(ptr noundef nonnull @z_strm) #21
  %.not40 = icmp eq i32 %31, 0
  br i1 %.not40, label %37, label %32

32:                                               ; preds = %24
  %33 = getelementptr inbounds nuw i8, ptr %0, i64 24
  %34 = load ptr, ptr %33, align 8, !tbaa !57
  %35 = getelementptr inbounds nuw i8, ptr %34, i64 24
  %36 = load ptr, ptr %35, align 8, !tbaa !58
  call void (ptr, ...) %36(ptr noundef nonnull @.str.10, i32 noundef %31) #21
  call fastcc void @graphviz_exit() #25
  unreachable

37:                                               ; preds = %24
  %38 = load i64, ptr @crc, align 8, !tbaa !67
  %39 = trunc i64 %38 to i8
  store i8 %39, ptr %2, align 8, !tbaa !54
  %40 = lshr i64 %38, 8
  %41 = trunc i64 %40 to i8
  %42 = getelementptr inbounds nuw i8, ptr %2, i64 1
  store i8 %41, ptr %42, align 1, !tbaa !54
  %43 = lshr i64 %38, 16
  %44 = trunc i64 %43 to i8
  %45 = getelementptr inbounds nuw i8, ptr %2, i64 2
  store i8 %44, ptr %45, align 2, !tbaa !54
  %46 = lshr i64 %38, 24
  %47 = trunc i64 %46 to i8
  %48 = getelementptr inbounds nuw i8, ptr %2, i64 3
  store i8 %47, ptr %48, align 1, !tbaa !54
  %49 = load i64, ptr getelementptr inbounds nuw (i8, ptr @z_strm, i64 16), align 8, !tbaa !79
  %50 = trunc i64 %49 to i8
  %51 = getelementptr inbounds nuw i8, ptr %2, i64 4
  store i8 %50, ptr %51, align 4, !tbaa !54
  %52 = lshr i64 %49, 8
  %53 = trunc i64 %52 to i8
  %54 = getelementptr inbounds nuw i8, ptr %2, i64 5
  store i8 %53, ptr %54, align 1, !tbaa !54
  %55 = lshr i64 %49, 16
  %56 = trunc i64 %55 to i8
  %57 = getelementptr inbounds nuw i8, ptr %2, i64 6
  store i8 %56, ptr %57, align 2, !tbaa !54
  %58 = lshr i64 %49, 24
  %59 = trunc i64 %58 to i8
  %60 = getelementptr inbounds nuw i8, ptr %2, i64 7
  store i8 %59, ptr %60, align 1, !tbaa !54
  %61 = call fastcc i64 @gvwrite_no_z(ptr noundef %0, ptr noundef nonnull %2, i64 noundef 8)
  call void @llvm.lifetime.end.p0(i64 8, ptr nonnull %2) #21
  br label %62

62:                                               ; preds = %37, %1
  %.not41 = icmp eq ptr %4, null
  br i1 %.not41, label %66, label %63

63:                                               ; preds = %62
  %64 = getelementptr inbounds nuw i8, ptr %4, i64 16
  %65 = load ptr, ptr %64, align 8, !tbaa !80
  %.not42 = icmp eq ptr %65, null
  br i1 %.not42, label %66, label %.critedge44

.critedge44:                                      ; preds = %63
  call void %65(ptr noundef %0) #21
  br label %gvdevice_close.exit

66:                                               ; preds = %62, %63
  %67 = getelementptr inbounds nuw i8, ptr %0, i64 72
  %68 = load ptr, ptr %67, align 8, !tbaa !34
  %.not.i = icmp eq ptr %68, null
  br i1 %.not.i, label %gvflush.exit, label %69

69:                                               ; preds = %66
  %70 = getelementptr inbounds nuw i8, ptr %0, i64 264
  %71 = load i8, ptr %70, align 8, !tbaa !76, !range !50, !noundef !51
  %72 = trunc nuw i8 %71 to i1
  br i1 %72, label %gvflush.exit, label %73

73:                                               ; preds = %69
  %74 = load ptr, ptr %0, align 8, !tbaa !30
  %75 = getelementptr inbounds nuw i8, ptr %74, i64 208
  %76 = load ptr, ptr %75, align 8, !tbaa !68
  %.not5.i = icmp eq ptr %76, null
  br i1 %.not5.i, label %77, label %gvflush.exit

77:                                               ; preds = %73
  %78 = call i32 @fflush(ptr noundef nonnull %68)
  br label %gvflush.exit

gvflush.exit:                                     ; preds = %66, %69, %73, %77
  %79 = getelementptr inbounds nuw i8, ptr %0, i64 64
  %80 = load ptr, ptr %79, align 8, !tbaa !52
  %.not.i45 = icmp eq ptr %80, null
  br i1 %.not.i45, label %gvdevice_close.exit, label %81

81:                                               ; preds = %gvflush.exit
  %82 = load ptr, ptr %67, align 8, !tbaa !34
  %83 = load ptr, ptr @stdout, align 8, !tbaa !60
  %.not7.i = icmp eq ptr %82, %83
  br i1 %.not7.i, label %gvdevice_close.exit, label %84

84:                                               ; preds = %81
  %85 = getelementptr inbounds nuw i8, ptr %0, i64 264
  %86 = load i8, ptr %85, align 8, !tbaa !76, !range !50, !noundef !51
  %87 = trunc nuw i8 %86 to i1
  br i1 %87, label %gvdevice_close.exit, label %88

88:                                               ; preds = %84
  %.not8.i = icmp eq ptr %82, null
  br i1 %.not8.i, label %91, label %89

89:                                               ; preds = %88
  %90 = call i32 @fclose(ptr noundef nonnull %82)
  store ptr null, ptr %67, align 8, !tbaa !34
  br label %91

91:                                               ; preds = %89, %88
  store ptr null, ptr %79, align 8, !tbaa !52
  br label %gvdevice_close.exit

gvdevice_close.exit:                              ; preds = %91, %84, %81, %gvflush.exit, %.critedge44
  ret void
}